target datalayout = "e-m:e-p270:32:32-p271:32:32-p272:64:64-i64:64-i128:128-f80:128-n8:16:32:64-S128"
target triple = "x86_64-pc-linux-gnu"

%struct.Float4X4 = type { %union.anon }
%union.anon = type { %struct.anon }
%struct.anon = type { float, float, float, float, float, float, float, float, float, float, float, float, float, float, float, float }
%struct.SDL_Rect = type { i32, i32, i32, i32 }
%struct.VULKAN_RenderData = type { ptr, ptr, i8, ptr, i8, ptr, %struct.VkPhysicalDeviceProperties, %struct.VkPhysicalDeviceMemoryProperties, %struct.VkPhysicalDeviceFeatures, ptr, ptr, ptr, i8, i32, i32, ptr, ptr, ptr, i32, ptr, ptr, %struct.VkSurfaceCapabilitiesKHR, ptr, i8, i32, i32, ptr, [2 x ptr], ptr, [3 x ptr], [3 x ptr], ptr, ptr, [256 x %struct.VULKAN_Buffer], %struct.VULKAN_VertexShaderConstants, ptr, ptr, ptr, ptr, i32, i32, [8 x ptr], ptr, ptr, i32, i32, i32, ptr, ptr, i8, i8, i8, i32, i32, i32, %struct.VkSurfaceFormatKHR, %struct.VkExtent2D, i32, i32, ptr, ptr, ptr, ptr, ptr, ptr, i32, ptr, ptr, i32, i32, ptr, i32, i32, ptr, i8, i8, %struct.SDL_Rect, %struct.SDL_Rect, i32, i8, %struct.Float4X4, %struct.VkComponentMapping, i32, i8 }
%struct.VkPhysicalDeviceProperties = type { i32, i32, i32, i32, i32, [256 x i8], [16 x i8], %struct.VkPhysicalDeviceLimits, %struct.VkPhysicalDeviceSparseProperties }
%struct.VkPhysicalDeviceLimits = type { i32, i32, i32, i32, i32, i32, i32, i32, i32, i32, i32, i64, i64, i32, i32, i32, i32, i32, i32, i32, i32, i32, i32, i32, i32, i32, i32, i32, i32, i32, i32, i32, i32, i32, i32, i32, i32, i32, i32, i32, i32, i32, i32, i32, i32, i32, i32, i32, i32, i32, i32, i32, [3 x i32], i32, [3 x i32], i32, i32, i32, i32, i32, float, float, i32, [2 x i32], [2 x float], i32, i64, i64, i64, i64, i32, i32, i32, i32, float, float, i32, i32, i32, i32, i32, i32, i32, i32, i32, i32, i32, i32, i32, i32, i32, i32, float, i32, i32, i32, i32, [2 x float], [2 x float], float, float, i32, i32, i64, i64, i64 }
%struct.VkPhysicalDeviceSparseProperties = type { i32, i32, i32, i32, i32 }
%struct.VkPhysicalDeviceMemoryProperties = type { i32, [32 x %struct.VkMemoryType], i32, [16 x %struct.VkMemoryHeap] }
%struct.VkMemoryType = type { i32, i32 }
%struct.VkMemoryHeap = type { i64, i32 }
%struct.VkPhysicalDeviceFeatures = type { i32, i32, i32, i32, i32, i32, i32, i32, i32, i32, i32, i32, i32, i32, i32, i32, i32, i32, i32, i32, i32, i32, i32, i32, i32, i32, i32, i32, i32, i32, i32, i32, i32, i32, i32, i32, i32, i32, i32, i32, i32, i32, i32, i32, i32, i32, i32, i32, i32, i32, i32, i32, i32, i32, i32 }
%struct.VkSurfaceCapabilitiesKHR = type { i32, i32, %struct.VkExtent2D, %struct.VkExtent2D, %struct.VkExtent2D, i32, i32, i32, i32, i32 }
%struct.VULKAN_Buffer = type { ptr, ptr, i64, ptr }
%struct.VULKAN_VertexShaderConstants = type { %struct.Float4X4, %struct.Float4X4 }
%struct.VkSurfaceFormatKHR = type { i32, i32 }
%struct.VkExtent2D = type { i32, i32 }
%struct.VkComponentMapping = type { i32, i32, i32, i32 }
%struct.VkExtensionProperties = type { [256 x i8], i32 }

@.str.7 = private unnamed_addr constant [24 x i8] c"SDL_RENDER_VULKAN_DEBUG\00", align 1
@.str.8 = private unnamed_addr constant [7 x i8] c"%s: %s\00", align 1
@vkEnumerateDeviceExtensionProperties = internal global ptr null, align 8
@.str.120 = private unnamed_addr constant [39 x i8] c"vkEnumerateDeviceExtensionProperties()\00", align 1

; Function Attrs: nounwind uwtable
define internal zeroext i1 @VULKAN_DeviceExtensionsFound(ptr noundef %0, i32 noundef %1, ptr noundef %2) #0 {
  %4 = alloca i1, align 1
  %5 = alloca ptr, align 8
  %6 = alloca i32, align 4
  %7 = alloca ptr, align 8
  %8 = alloca i32, align 4
  %9 = alloca i8, align 1
  %10 = alloca i32, align 4
  %11 = alloca i32, align 4
  %12 = alloca ptr, align 8
  %13 = alloca i32, align 4
  %14 = alloca i8, align 1
  %15 = alloca i32, align 4
  store ptr %0, ptr %5, align 8
  store i32 %1, ptr %6, align 4
  store ptr %2, ptr %7, align 8
  call void @llvm.lifetime.start.p0(i64 4, ptr %8) #6
  call void @llvm.lifetime.start.p0(i64 1, ptr %9) #6
  store i8 1, ptr %9, align 1
  call void @llvm.lifetime.start.p0(i64 4, ptr %10) #6
  %16 = load ptr, ptr @vkEnumerateDeviceExtensionProperties, align 8
  %17 = load ptr, ptr %5, align 8
  %18 = getelementptr inbounds nuw %struct.VULKAN_RenderData, ptr %17, i32 0, i32 5
  %19 = load ptr, ptr %18, align 8
  %20 = call i32 %16(ptr noundef %19, ptr noundef null, ptr noundef %8, ptr noundef null)
  store i32 %20, ptr %10, align 4
  %21 = load i32, ptr %10, align 4
  %22 = icmp ne i32 %21, 0
  br i1 %22, label %23, label %32

23:                                               ; preds = %3
  %24 = call zeroext i1 @SDL_GetHintBoolean_REAL(ptr noundef @.str.7, i1 noundef zeroext false)
  br i1 %24, label %25, label %28

25:                                               ; preds = %23
  %26 = load i32, ptr %10, align 4
  %27 = call ptr @SDL_Vulkan_GetResultString(i32 noundef %26)
  call void (i32, ptr, ...) @SDL_LogError_REAL(i32 noundef 6, ptr noundef @.str.8, ptr noundef @.str.120, ptr noundef %27)
  call void @llvm.debugtrap()
  br label %28

28:                                               ; preds = %25, %23
  %29 = load i32, ptr %10, align 4
  %30 = call ptr @SDL_Vulkan_GetResultString(i32 noundef %29)
  %31 = call zeroext i1 (ptr, ...) @SDL_SetError_REAL(ptr noundef @.str.8, ptr noundef @.str.120, ptr noundef %30)
  store i1 false, ptr %4, align 1
  store i32 1, ptr %11, align 4
  br label %115

32:                                               ; preds = %3
  %33 = load i32, ptr %8, align 4
  %34 = icmp ugt i32 %33, 0
  br i1 %34, label %35, label %112

35:                                               ; preds = %32
  call void @llvm.lifetime.start.p0(i64 8, ptr %12) #6
  %36 = load i32, ptr %8, align 4
  %37 = zext i32 %36 to i64
  %38 = call noalias ptr @SDL_calloc_REAL(i64 noundef %37, i64 noundef 260) #8
  store ptr %38, ptr %12, align 8
  %39 = load ptr, ptr @vkEnumerateDeviceExtensionProperties, align 8
  %40 = load ptr, ptr %5, align 8
  %41 = getelementptr inbounds nuw %struct.VULKAN_RenderData, ptr %40, i32 0, i32 5
  %42 = load ptr, ptr %41, align 8
  %43 = load ptr, ptr %12, align 8
  %44 = call i32 %39(ptr noundef %42, ptr noundef null, ptr noundef %8, ptr noundef %43)
  store i32 %44, ptr %10, align 4
  %45 = load i32, ptr %10, align 4
  %46 = icmp ne i32 %45, 0
  br i1 %46, label %47, label %57

47:                                               ; preds = %35
  %48 = call zeroext i1 @SDL_GetHintBoolean_REAL(ptr noundef @.str.7, i1 noundef zeroext false)
  br i1 %48, label %49, label %52

49:                                               ; preds = %47
  %50 = load i32, ptr %10, align 4
  %51 = call ptr @SDL_Vulkan_GetResultString(i32 noundef %50)
  call void (i32, ptr, ...) @SDL_LogError_REAL(i32 noundef 6, ptr noundef @.str.8, ptr noundef @.str.120, ptr noundef %51)
  call void @llvm.debugtrap()
  br label %52

52:                                               ; preds = %49, %47
  %53 = load i32, ptr %10, align 4
  %54 = call ptr @SDL_Vulkan_GetResultString(i32 noundef %53)
  %55 = call zeroext i1 (ptr, ...) @SDL_SetError_REAL(ptr noundef @.str.8, ptr noundef @.str.120, ptr noundef %54)
  %56 = load ptr, ptr %12, align 8
  call void @SDL_free_REAL(ptr noundef %56)
  store i1 false, ptr %4, align 1
  store i32 1, ptr %11, align 4
  br label %109

57:                                               ; preds = %35
  call void @llvm.lifetime.start.p0(i64 4, ptr %13) #6
  store i32 0, ptr %13, align 4
  br label %58

58:                                               ; preds = %104, %57
  %59 = load i32, ptr %13, align 4
  %60 = load i32, ptr %6, align 4
  %61 = icmp slt i32 %59, %60
  br i1 %61, label %62, label %65

62:                                               ; preds = %58
  %63 = load i8, ptr %9, align 1, !range !3, !noundef !4
  %64 = trunc i8 %63 to i1
  br label %65

65:                                               ; preds = %62, %58
  %66 = phi i1 [ false, %58 ], [ %64, %62 ]
  br i1 %66, label %68, label %67

67:                                               ; preds = %65
  store i32 2, ptr %11, align 4
  call void @llvm.lifetime.end.p0(i64 4, ptr %13) #6
  br label %107

68:                                               ; preds = %65
  call void @llvm.lifetime.start.p0(i64 1, ptr %14) #6
  store i8 0, ptr %14, align 1
  call void @llvm.lifetime.start.p0(i64 4, ptr %15) #6
  store i32 0, ptr %15, align 4
  br label %69

69:                                               ; preds = %90, %68
  %70 = load i32, ptr %15, align 4
  %71 = load i32, ptr %8, align 4
  %72 = icmp ult i32 %70, %71
  br i1 %72, label %74, label %73

73:                                               ; preds = %69
  store i32 5, ptr %11, align 4
  br label %93

74:                                               ; preds = %69
  %75 = load ptr, ptr %12, align 8
  %76 = load i32, ptr %15, align 4
  %77 = zext i32 %76 to i64
  %78 = getelementptr inbounds nuw %struct.VkExtensionProperties, ptr %75, i64 %77
  %79 = getelementptr inbounds nuw %struct.VkExtensionProperties, ptr %78, i32 0, i32 0
  %80 = getelementptr inbounds [256 x i8], ptr %79, i64 0, i64 0
  %81 = load ptr, ptr %7, align 8
  %82 = load i32, ptr %13, align 4
  %83 = sext i32 %82 to i64
  %84 = getelementptr inbounds ptr, ptr %81, i64 %83
  %85 = load ptr, ptr %84, align 8
  %86 = call i32 @SDL_strcmp_REAL(ptr noundef %80, ptr noundef %85)
  %87 = icmp eq i32 %86, 0
  br i1 %87, label %88, label %89

88:                                               ; preds = %74
  store i8 1, ptr %14, align 1
  store i32 5, ptr %11, align 4
  br label %93

89:                                               ; preds = %74
  br label %90

90:                                               ; preds = %89
  %91 = load i32, ptr %15, align 4
  %92 = add i32 %91, 1
  store i32 %92, ptr %15, align 4
  br label %69, !llvm.loop !44

93:                                               ; preds = %88, %73
  call void @llvm.lifetime.end.p0(i64 4, ptr %15) #6
  br label %94

94:                                               ; preds = %93
  %95 = load i8, ptr %14, align 1, !range !3, !noundef !4
  %96 = trunc i8 %95 to i1
  %97 = zext i1 %96 to i32
  %98 = load i8, ptr %9, align 1, !range !3, !noundef !4
  %99 = trunc i8 %98 to i1
  %100 = zext i1 %99 to i32
  %101 = and i32 %100, %97
  %102 = icmp ne i32 %101, 0
  %103 = zext i1 %102 to i8
  store i8 %103, ptr %9, align 1
  call void @llvm.lifetime.end.p0(i64 1, ptr %14) #6
  br label %104

104:                                              ; preds = %94
  %105 = load i32, ptr %13, align 4
  %106 = add nsw i32 %105, 1
  store i32 %106, ptr %13, align 4
  br label %58, !llvm.loop !45

107:                                              ; preds = %67
  %108 = load ptr, ptr %12, align 8
  call void @SDL_free_REAL(ptr noundef %108)
  store i32 0, ptr %11, align 4
  br label %109

109:                                              ; preds = %107, %52
  call void @llvm.lifetime.end.p0(i64 8, ptr %12) #6
  %110 = load i32, ptr %11, align 4
  switch i32 %110, label %115 [
    i32 0, label %111
  ]

111:                                              ; preds = %109
  br label %112

112:                                              ; preds = %111, %32
  %113 = load i8, ptr %9, align 1, !range !3, !noundef !4
  %114 = trunc i8 %113 to i1
  store i1 %114, ptr %4, align 1
  store i32 1, ptr %11, align 4
  br label %115

115:                                              ; preds = %112, %109, %28
  call void @llvm.lifetime.end.p0(i64 4, ptr %10) #6
  call void @llvm.lifetime.end.p0(i64 1, ptr %9) #6
  call void @llvm.lifetime.end.p0(i64 4, ptr %8) #6
  %116 = load i1, ptr %4, align 1
  ret i1 %116
}