; Function Attrs: nounwind uwtable
define internal fastcc noundef zeroext i1 @VULKAN_DeviceExtensionsFound(ptr noundef readonly captures(none) %0) unnamed_addr #0 {
  %2 = alloca i32, align 4
  call void @llvm.lifetime.start.p0(i64 4, ptr nonnull %2) #8
  %3 = load ptr, ptr @vkEnumerateDeviceExtensionProperties, align 8
  %4 = getelementptr inbounds nuw i8, ptr %0, i64 40
  %5 = load ptr, ptr %4, align 8
  %6 = call i32 %3(ptr noundef %5, ptr noundef null, ptr noundef nonnull %2, ptr noundef null) #8
  %.not = icmp eq i32 %6, 0
  br i1 %.not, label %14, label %7

7:                                                ; preds = %1
  %8 = call zeroext i1 @SDL_GetHintBoolean_REAL(ptr noundef nonnull @.str.7, i1 noundef zeroext false) #8
  br i1 %8, label %9, label %11

9:                                                ; preds = %7
  %10 = call ptr @SDL_Vulkan_GetResultString(i32 noundef %6) #8
  call void (i32, ptr, ...) @SDL_LogError_REAL(i32 noundef 6, ptr noundef nonnull @.str.8, ptr noundef nonnull @.str.120, ptr noundef %10) #8
  call void @llvm.debugtrap()
  br label %11

11:                                               ; preds = %9, %7
  %12 = call ptr @SDL_Vulkan_GetResultString(i32 noundef %6) #8
  %13 = call zeroext i1 (ptr, ...) @SDL_SetError_REAL(ptr noundef nonnull @.str.8, ptr noundef nonnull @.str.120, ptr noundef %12) #8
  br label %40

14:                                               ; preds = %1
  %15 = load i32, ptr %2, align 4
  %.not34 = icmp eq i32 %15, 0
  br i1 %.not34, label %40, label %16

16:                                               ; preds = %14
  %17 = zext i32 %15 to i64
  %18 = call noalias ptr @SDL_calloc_REAL(i64 noundef %17, i64 noundef 260) #11
  %19 = load ptr, ptr @vkEnumerateDeviceExtensionProperties, align 8
  %20 = load ptr, ptr %4, align 8
  %21 = call i32 %19(ptr noundef %20, ptr noundef null, ptr noundef nonnull %2, ptr noundef %18) #8
  %.not35 = icmp eq i32 %21, 0
  br i1 %.not35, label %.preheader2, label %23

.preheader2:                                      ; preds = %16
  %22 = load i32, ptr %2, align 4
  %.not8 = icmp eq i32 %22, 0
  br i1 %.not8, label %.split, label %.lr.ph

23:                                               ; preds = %16
  %24 = call zeroext i1 @SDL_GetHintBoolean_REAL(ptr noundef nonnull @.str.7, i1 noundef zeroext false) #8
  br i1 %24, label %25, label %.thread

25:                                               ; preds = %23
  %26 = call ptr @SDL_Vulkan_GetResultString(i32 noundef %21) #8
  call void (i32, ptr, ...) @SDL_LogError_REAL(i32 noundef 6, ptr noundef nonnull @.str.8, ptr noundef nonnull @.str.120, ptr noundef %26) #8
  call void @llvm.debugtrap()
  br label %.thread

.thread:                                          ; preds = %23, %25
  %27 = call ptr @SDL_Vulkan_GetResultString(i32 noundef %21) #8
  %28 = call zeroext i1 (ptr, ...) @SDL_SetError_REAL(ptr noundef nonnull @.str.8, ptr noundef nonnull @.str.120, ptr noundef %27) #8
  call void @SDL_free_REAL(ptr noundef %18) #8
  br label %40

.preheaderthread-pre-split:                       ; preds = %._crit_edge
  %indvars.iv.next14 = add nuw nsw i64 %indvars.iv132, 1
  %.pr = load i32, ptr %2, align 4
  %.not11 = icmp eq i32 %.pr, 0
  br i1 %.not11, label %.split, label %.lr.ph

.lr.ph:                                           ; preds = %.preheader2, %.preheaderthread-pre-split
  %indvars.iv132 = phi i64 [ %indvars.iv.next14, %.preheaderthread-pre-split ], [ 0, %.preheader2 ]
  %29 = getelementptr inbounds nuw ptr, ptr getelementptr inbounds nuw (i8, ptr @VULKAN_CreateDeviceResources.deviceExtensionNames, i64 8), i64 %indvars.iv132
  %30 = load ptr, ptr %29, align 8
  br label %35

31:                                               ; preds = %35
  %indvars.iv.next = add nuw nsw i64 %indvars.iv, 1
  %32 = load i32, ptr %2, align 4
  %33 = zext i32 %32 to i64
  %34 = icmp samesign ult i64 %indvars.iv.next, %33
  br i1 %34, label %35, label %.split, !llvm.loop !65

35:                                               ; preds = %.lr.ph, %31
  %indvars.iv = phi i64 [ 0, %.lr.ph ], [ %indvars.iv.next, %31 ]
  %36 = getelementptr inbounds nuw %struct.VkExtensionProperties, ptr %18, i64 %indvars.iv
  %37 = call i32 @SDL_strcmp_REAL(ptr noundef %36, ptr noundef %30) #8
  %38 = icmp eq i32 %37, 0
  br i1 %38, label %._crit_edge, label %31

._crit_edge:                                      ; preds = %35
  %39 = icmp samesign ugt i64 %indvars.iv132, 2
  br i1 %39, label %.split, label %.preheaderthread-pre-split, !llvm.loop !66

.split:                                           ; preds = %.preheaderthread-pre-split, %._crit_edge, %31, %.preheader2
  %.us-phi = phi i1 [ false, %.preheader2 ], [ false, %31 ], [ %39, %._crit_edge ], [ %39, %.preheaderthread-pre-split ]
  call void @SDL_free_REAL(ptr noundef %18) #8
  br label %40

40:                                               ; preds = %14, %.split, %.thread, %11
  %.027 = phi i1 [ false, %11 ], [ false, %.thread ], [ %.us-phi, %.split ], [ true, %14 ]
  call void @llvm.lifetime.end.p0(i64 4, ptr nonnull %2) #8
  ret i1 %.027
}